target datalayout = "e-m:e-p270:32:32-p271:32:32-p272:64:64-i64:64-i128:128-f80:128-n8:16:32:64-S128"
target triple = "x86_64-unknown-linux-gnu"

%"class.icu_75::UnicodeString" = type { %"class.icu_75::Replaceable", %"union.icu_75::UnicodeString::StackBufferOrFields" }
%"class.icu_75::Replaceable" = type { %"class.icu_75::UObject" }
%"class.icu_75::UObject" = type { ptr }
%"union.icu_75::UnicodeString::StackBufferOrFields" = type { %struct.anon.0, [32 x i8] }
%struct.anon.0 = type { i16, i32, i32, ptr }
%"struct.icu_75::number::impl::DecimalFormatProperties" = type <{ %"class.icu_75::number::impl::NullableValue", %"class.icu_75::number::impl::NullableValue.2", %"class.icu_75::number::impl::CurrencyPluralInfoWrapper", %"class.icu_75::number::impl::NullableValue.3", i8, i8, i8, i8, i8, [3 x i8], i32, i32, i8, [3 x i8], i32, i32, i32, i32, i32, i32, i32, i32, i32, i32, i32, %"class.icu_75::UnicodeString", %"class.icu_75::UnicodeString", %"class.icu_75::UnicodeString", %"class.icu_75::UnicodeString", %"class.icu_75::number::impl::NullableValue.4", %"class.icu_75::UnicodeString", i8, i8, [2 x i8], %"class.icu_75::number::impl::NullableValue.5", i8, i8, [2 x i8], i32, [4 x i8], %"class.icu_75::UnicodeString", %"class.icu_75::UnicodeString", %"class.icu_75::UnicodeString", %"class.icu_75::UnicodeString", double, %"class.icu_75::number::impl::NullableValue.6", i32, i8, [3 x i8] }>
%"class.icu_75::number::impl::NullableValue" = type { i8, i32 }
%"class.icu_75::number::impl::NullableValue.2" = type { i8, [7 x i8], %"class.icu_75::CurrencyUnit" }
%"class.icu_75::CurrencyUnit" = type { %"class.icu_75::MeasureUnit.base", [4 x i16], [4 x i8] }
%"class.icu_75::MeasureUnit.base" = type <{ %"class.icu_75::UObject", ptr, i16, i8 }>
%"class.icu_75::number::impl::CurrencyPluralInfoWrapper" = type { %"class.icu_75::LocalPointer" }
%"class.icu_75::LocalPointer" = type { %"class.icu_75::LocalPointerBase" }
%"class.icu_75::LocalPointerBase" = type { ptr }
%"class.icu_75::number::impl::NullableValue.3" = type { i8, i32 }
%"class.icu_75::number::impl::NullableValue.4" = type { i8, i32 }
%"class.icu_75::number::impl::NullableValue.5" = type { i8, i32 }
%"class.icu_75::number::impl::NullableValue.6" = type { i8, i32 }

; Function Attrs: mustprogress uwtable
define void @_ZN6icu_756number4impl13PatternParser17parseToPropertiesERKNS_13UnicodeStringENS1_14IgnoreRoundingER10UErrorCode(ptr noalias sret(%"struct.icu_75::number::impl::DecimalFormatProperties") align 8 %agg.result, ptr noundef nonnull align 8 dereferenceable(64) %pattern, i32 noundef %ignoreRounding, ptr noundef nonnull align 4 dereferenceable(4) %status) #1 align 2 personality ptr @__gxx_personality_v0 {
entry:
  %result.ptr = alloca ptr, align 8
  %pattern.addr = alloca ptr, align 8
  %ignoreRounding.addr = alloca i32, align 4
  %status.addr = alloca ptr, align 8
  %nrvo = alloca i1, align 1
  %exn.slot = alloca ptr, align 8
  %ehselector.slot = alloca i32, align 4
  store ptr %agg.result, ptr %result.ptr, align 8
  store ptr %pattern, ptr %pattern.addr, align 8
  store i32 %ignoreRounding, ptr %ignoreRounding.addr, align 4
  store ptr %status, ptr %status.addr, align 8
  store i1 false, ptr %nrvo, align 1
  call void @_ZN6icu_756number4impl23DecimalFormatPropertiesC1Ev(ptr noundef nonnull align 8 dereferenceable(757) %agg.result)
  %0 = load ptr, ptr %pattern.addr, align 8
  %1 = load i32, ptr %ignoreRounding.addr, align 4
  %2 = load ptr, ptr %status.addr, align 8
  invoke void @_ZN6icu_756number4impl13PatternParser29parseToExistingPropertiesImplERKNS_13UnicodeStringERNS1_23DecimalFormatPropertiesENS1_14IgnoreRoundingER10UErrorCode(ptr noundef nonnull align 8 dereferenceable(64) %0, ptr noundef nonnull align 8 dereferenceable(757) %agg.result, i32 noundef %1, ptr noundef nonnull align 4 dereferenceable(4) %2)
          to label %invoke.cont unwind label %lpad

invoke.cont:                                      ; preds = %entry
  store i1 true, ptr %nrvo, align 1
  %nrvo.val = load i1, ptr %nrvo, align 1
  br i1 %nrvo.val, label %nrvo.skipdtor, label %nrvo.unused

lpad:                                             ; preds = %entry
  %3 = landingpad { ptr, i32 }
          cleanup
  %4 = extractvalue { ptr, i32 } %3, 0
  store ptr %4, ptr %exn.slot, align 8
  %5 = extractvalue { ptr, i32 } %3, 1
  store i32 %5, ptr %ehselector.slot, align 4
  call void @_ZN6icu_756number4impl23DecimalFormatPropertiesD2Ev(ptr noundef nonnull align 8 dereferenceable(757) %agg.result) #8
  br label %eh.resume

nrvo.unused:                                      ; preds = %invoke.cont
  call void @_ZN6icu_756number4impl23DecimalFormatPropertiesD2Ev(ptr noundef nonnull align 8 dereferenceable(757) %agg.result) #8
  br label %nrvo.skipdtor

nrvo.skipdtor:                                    ; preds = %nrvo.unused, %invoke.cont
  ret void

eh.resume:                                        ; preds = %lpad
  %exn = load ptr, ptr %exn.slot, align 8
  %sel = load i32, ptr %ehselector.slot, align 4
  %lpad.val = insertvalue { ptr, i32 } poison, ptr %exn, 0
  %lpad.val1 = insertvalue { ptr, i32 } %lpad.val, i32 %sel, 1
  resume { ptr, i32 } %lpad.val1
}